target datalayout = "e-m:e-p270:32:32-p271:32:32-p272:64:64-i64:64-i128:128-f80:128-n8:16:32:64-S128"
target triple = "x86_64-pc-linux-gnu"

@.str.6 = private unnamed_addr constant [3 x i8] c"%f\00", align 1

; Function Attrs: nounwind uwtable
define i32 @pmix20_bfrop_pack_float(ptr noundef %0, ptr noundef %1, ptr noundef %2, i32 noundef %3, i16 noundef zeroext %4) #0 {
  %6 = alloca i32, align 4
  %7 = alloca ptr, align 8
  %8 = alloca ptr, align 8
  %9 = alloca ptr, align 8
  %10 = alloca i32, align 4
  %11 = alloca i16, align 2
  %12 = alloca i32, align 4
  %13 = alloca i32, align 4
  %14 = alloca ptr, align 8
  %15 = alloca ptr, align 8
  %16 = alloca i32, align 4
  store ptr %0, ptr %7, align 8, !tbaa !11
  store ptr %1, ptr %8, align 8, !tbaa !3
  store ptr %2, ptr %9, align 8, !tbaa !3
  store i32 %3, ptr %10, align 4, !tbaa !7
  store i16 %4, ptr %11, align 2, !tbaa !9
  call void @llvm.lifetime.start.p0(i64 4, ptr %12) #9
  store i32 0, ptr %12, align 4, !tbaa !7
  call void @llvm.lifetime.start.p0(i64 4, ptr %13) #9
  call void @llvm.lifetime.start.p0(i64 8, ptr %14) #9
  %17 = load ptr, ptr %9, align 8, !tbaa !3
  store ptr %17, ptr %14, align 8, !tbaa !57
  call void @llvm.lifetime.start.p0(i64 8, ptr %15) #9
  store i32 0, ptr %13, align 4, !tbaa !7
  br label %18

18:                                               ; preds = %42, %5
  %19 = load i32, ptr %13, align 4, !tbaa !7
  %20 = load i32, ptr %10, align 4, !tbaa !7
  %21 = icmp slt i32 %19, %20
  br i1 %21, label %22, label %45

22:                                               ; preds = %18
  %23 = load ptr, ptr %14, align 8, !tbaa !57
  %24 = load i32, ptr %13, align 4, !tbaa !7
  %25 = sext i32 %24 to i64
  %26 = getelementptr inbounds float, ptr %23, i64 %25
  %27 = load float, ptr %26, align 4, !tbaa !59
  %28 = fpext float %27 to double
  %29 = call i32 (ptr, ptr, ...) @asprintf(ptr noundef %15, ptr noundef @.str.6, double noundef %28) #9
  %30 = icmp sgt i32 0, %29
  br i1 %30, label %31, label %32

31:                                               ; preds = %22
  store i32 -32, ptr %6, align 4
  store i32 1, ptr %16, align 4
  br label %46

32:                                               ; preds = %22
  %33 = load ptr, ptr %7, align 8, !tbaa !11
  %34 = load ptr, ptr %8, align 8, !tbaa !3
  %35 = call i32 @pmix20_bfrop_pack_string(ptr noundef %33, ptr noundef %34, ptr noundef %15, i32 noundef 1, i16 noundef zeroext 3)
  store i32 %35, ptr %12, align 4, !tbaa !7
  %36 = icmp ne i32 0, %35
  br i1 %36, label %37, label %40

37:                                               ; preds = %32
  %38 = load ptr, ptr %15, align 8, !tbaa !31
  call void @free(ptr noundef %38) #9
  %39 = load i32, ptr %12, align 4, !tbaa !7
  store i32 %39, ptr %6, align 4
  store i32 1, ptr %16, align 4
  br label %46

40:                                               ; preds = %32
  %41 = load ptr, ptr %15, align 8, !tbaa !31
  call void @free(ptr noundef %41) #9
  br label %42

42:                                               ; preds = %40
  %43 = load i32, ptr %13, align 4, !tbaa !7
  %44 = add nsw i32 %43, 1
  store i32 %44, ptr %13, align 4, !tbaa !7
  br label %18, !llvm.loop !61

45:                                               ; preds = %18
  store i32 0, ptr %6, align 4
  store i32 1, ptr %16, align 4
  br label %46

46:                                               ; preds = %45, %37, %31
  call void @llvm.lifetime.end.p0(i64 8, ptr %15) #9
  call void @llvm.lifetime.end.p0(i64 8, ptr %14) #9
  call void @llvm.lifetime.end.p0(i64 4, ptr %13) #9
  call void @llvm.lifetime.end.p0(i64 4, ptr %12) #9
  %47 = load i32, ptr %6, align 4
  ret i32 %47
}